
Lab6f_V2.elf:     file format elf32-avr

Sections:
Idx Name          Size      VMA       LMA       File off  Algn
  0 .text         000005ea  00000000  00000000  00000094  2**1
                  CONTENTS, ALLOC, LOAD, READONLY, CODE
  1 .data         00000014  00802000  000005ea  0000067e  2**0
                  CONTENTS, ALLOC, LOAD, DATA
  2 .bss          0000000e  00802014  00802014  00000692  2**0
                  ALLOC
  3 .comment      00000030  00000000  00000000  00000692  2**0
                  CONTENTS, READONLY
  4 .note.gnu.avr.deviceinfo 00000040  00000000  00000000  000006c4  2**2
                  CONTENTS, READONLY
  5 .debug_aranges 00000100  00000000  00000000  00000704  2**0
                  CONTENTS, READONLY, DEBUGGING
  6 .debug_info   000053c0  00000000  00000000  00000804  2**0
                  CONTENTS, READONLY, DEBUGGING
  7 .debug_abbrev 00003fe7  00000000  00000000  00005bc4  2**0
                  CONTENTS, READONLY, DEBUGGING
  8 .debug_line   00000cb2  00000000  00000000  00009bab  2**0
                  CONTENTS, READONLY, DEBUGGING
  9 .debug_frame  000001b0  00000000  00000000  0000a860  2**2
                  CONTENTS, READONLY, DEBUGGING
 10 .debug_str    0000331d  00000000  00000000  0000aa10  2**0
                  CONTENTS, READONLY, DEBUGGING
 11 .debug_loc    0000021d  00000000  00000000  0000dd2d  2**0
                  CONTENTS, READONLY, DEBUGGING
 12 .debug_ranges 000000b0  00000000  00000000  0000df4a  2**0
                  CONTENTS, READONLY, DEBUGGING

Disassembly of section .text:

00000000 <__vectors>:
   0:	0c 94 fe 00 	jmp	0x1fc	; 0x1fc <__ctors_end>
   4:	0c 94 24 01 	jmp	0x248	; 0x248 <__bad_interrupt>
   8:	0c 94 ca 01 	jmp	0x394	; 0x394 <__vector_2>
   c:	0c 94 24 01 	jmp	0x248	; 0x248 <__bad_interrupt>
  10:	0c 94 24 01 	jmp	0x248	; 0x248 <__bad_interrupt>
  14:	0c 94 24 01 	jmp	0x248	; 0x248 <__bad_interrupt>
  18:	0c 94 24 01 	jmp	0x248	; 0x248 <__bad_interrupt>
  1c:	0c 94 24 01 	jmp	0x248	; 0x248 <__bad_interrupt>
  20:	0c 94 24 01 	jmp	0x248	; 0x248 <__bad_interrupt>
  24:	0c 94 24 01 	jmp	0x248	; 0x248 <__bad_interrupt>
  28:	0c 94 24 01 	jmp	0x248	; 0x248 <__bad_interrupt>
  2c:	0c 94 24 01 	jmp	0x248	; 0x248 <__bad_interrupt>
  30:	0c 94 24 01 	jmp	0x248	; 0x248 <__bad_interrupt>
  34:	0c 94 24 01 	jmp	0x248	; 0x248 <__bad_interrupt>
  38:	0c 94 24 01 	jmp	0x248	; 0x248 <__bad_interrupt>
  3c:	0c 94 24 01 	jmp	0x248	; 0x248 <__bad_interrupt>
  40:	0c 94 24 01 	jmp	0x248	; 0x248 <__bad_interrupt>
  44:	0c 94 24 01 	jmp	0x248	; 0x248 <__bad_interrupt>
  48:	0c 94 24 01 	jmp	0x248	; 0x248 <__bad_interrupt>
  4c:	0c 94 24 01 	jmp	0x248	; 0x248 <__bad_interrupt>
  50:	0c 94 24 01 	jmp	0x248	; 0x248 <__bad_interrupt>
  54:	0c 94 24 01 	jmp	0x248	; 0x248 <__bad_interrupt>
  58:	0c 94 24 01 	jmp	0x248	; 0x248 <__bad_interrupt>
  5c:	0c 94 24 01 	jmp	0x248	; 0x248 <__bad_interrupt>
  60:	0c 94 24 01 	jmp	0x248	; 0x248 <__bad_interrupt>
  64:	0c 94 24 01 	jmp	0x248	; 0x248 <__bad_interrupt>
  68:	0c 94 24 01 	jmp	0x248	; 0x248 <__bad_interrupt>
  6c:	0c 94 24 01 	jmp	0x248	; 0x248 <__bad_interrupt>
  70:	0c 94 24 01 	jmp	0x248	; 0x248 <__bad_interrupt>
  74:	0c 94 24 01 	jmp	0x248	; 0x248 <__bad_interrupt>
  78:	0c 94 24 01 	jmp	0x248	; 0x248 <__bad_interrupt>
  7c:	0c 94 24 01 	jmp	0x248	; 0x248 <__bad_interrupt>
  80:	0c 94 24 01 	jmp	0x248	; 0x248 <__bad_interrupt>
  84:	0c 94 24 01 	jmp	0x248	; 0x248 <__bad_interrupt>
  88:	0c 94 24 01 	jmp	0x248	; 0x248 <__bad_interrupt>
  8c:	0c 94 24 01 	jmp	0x248	; 0x248 <__bad_interrupt>
  90:	0c 94 24 01 	jmp	0x248	; 0x248 <__bad_interrupt>
  94:	0c 94 24 01 	jmp	0x248	; 0x248 <__bad_interrupt>
  98:	0c 94 24 01 	jmp	0x248	; 0x248 <__bad_interrupt>
  9c:	0c 94 24 01 	jmp	0x248	; 0x248 <__bad_interrupt>
  a0:	0c 94 24 01 	jmp	0x248	; 0x248 <__bad_interrupt>
  a4:	0c 94 24 01 	jmp	0x248	; 0x248 <__bad_interrupt>
  a8:	0c 94 24 01 	jmp	0x248	; 0x248 <__bad_interrupt>
  ac:	0c 94 24 01 	jmp	0x248	; 0x248 <__bad_interrupt>
  b0:	0c 94 24 01 	jmp	0x248	; 0x248 <__bad_interrupt>
  b4:	0c 94 24 01 	jmp	0x248	; 0x248 <__bad_interrupt>
  b8:	0c 94 24 01 	jmp	0x248	; 0x248 <__bad_interrupt>
  bc:	0c 94 24 01 	jmp	0x248	; 0x248 <__bad_interrupt>
  c0:	0c 94 24 01 	jmp	0x248	; 0x248 <__bad_interrupt>
  c4:	0c 94 24 01 	jmp	0x248	; 0x248 <__bad_interrupt>
  c8:	0c 94 24 01 	jmp	0x248	; 0x248 <__bad_interrupt>
  cc:	0c 94 24 01 	jmp	0x248	; 0x248 <__bad_interrupt>
  d0:	0c 94 24 01 	jmp	0x248	; 0x248 <__bad_interrupt>
  d4:	0c 94 24 01 	jmp	0x248	; 0x248 <__bad_interrupt>
  d8:	0c 94 24 01 	jmp	0x248	; 0x248 <__bad_interrupt>
  dc:	0c 94 24 01 	jmp	0x248	; 0x248 <__bad_interrupt>
  e0:	0c 94 24 01 	jmp	0x248	; 0x248 <__bad_interrupt>
  e4:	0c 94 24 01 	jmp	0x248	; 0x248 <__bad_interrupt>
  e8:	0c 94 24 01 	jmp	0x248	; 0x248 <__bad_interrupt>
  ec:	0c 94 24 01 	jmp	0x248	; 0x248 <__bad_interrupt>
  f0:	0c 94 24 01 	jmp	0x248	; 0x248 <__bad_interrupt>
  f4:	0c 94 24 01 	jmp	0x248	; 0x248 <__bad_interrupt>
  f8:	0c 94 24 01 	jmp	0x248	; 0x248 <__bad_interrupt>
  fc:	0c 94 24 01 	jmp	0x248	; 0x248 <__bad_interrupt>
 100:	0c 94 24 01 	jmp	0x248	; 0x248 <__bad_interrupt>
 104:	0c 94 24 01 	jmp	0x248	; 0x248 <__bad_interrupt>
 108:	0c 94 b0 01 	jmp	0x360	; 0x360 <__vector_66>
 10c:	0c 94 24 01 	jmp	0x248	; 0x248 <__bad_interrupt>
 110:	0c 94 24 01 	jmp	0x248	; 0x248 <__bad_interrupt>
 114:	0c 94 24 01 	jmp	0x248	; 0x248 <__bad_interrupt>
 118:	0c 94 24 01 	jmp	0x248	; 0x248 <__bad_interrupt>
 11c:	0c 94 24 01 	jmp	0x248	; 0x248 <__bad_interrupt>
 120:	0c 94 24 01 	jmp	0x248	; 0x248 <__bad_interrupt>
 124:	0c 94 24 01 	jmp	0x248	; 0x248 <__bad_interrupt>
 128:	0c 94 24 01 	jmp	0x248	; 0x248 <__bad_interrupt>
 12c:	0c 94 24 01 	jmp	0x248	; 0x248 <__bad_interrupt>
 130:	0c 94 24 01 	jmp	0x248	; 0x248 <__bad_interrupt>
 134:	0c 94 24 01 	jmp	0x248	; 0x248 <__bad_interrupt>
 138:	0c 94 24 01 	jmp	0x248	; 0x248 <__bad_interrupt>
 13c:	0c 94 24 01 	jmp	0x248	; 0x248 <__bad_interrupt>
 140:	0c 94 24 01 	jmp	0x248	; 0x248 <__bad_interrupt>
 144:	0c 94 24 01 	jmp	0x248	; 0x248 <__bad_interrupt>
 148:	0c 94 24 01 	jmp	0x248	; 0x248 <__bad_interrupt>
 14c:	0c 94 24 01 	jmp	0x248	; 0x248 <__bad_interrupt>
 150:	0c 94 24 01 	jmp	0x248	; 0x248 <__bad_interrupt>
 154:	0c 94 24 01 	jmp	0x248	; 0x248 <__bad_interrupt>
 158:	0c 94 24 01 	jmp	0x248	; 0x248 <__bad_interrupt>
 15c:	0c 94 24 01 	jmp	0x248	; 0x248 <__bad_interrupt>
 160:	0c 94 24 01 	jmp	0x248	; 0x248 <__bad_interrupt>
 164:	0c 94 24 01 	jmp	0x248	; 0x248 <__bad_interrupt>
 168:	0c 94 24 01 	jmp	0x248	; 0x248 <__bad_interrupt>
 16c:	0c 94 24 01 	jmp	0x248	; 0x248 <__bad_interrupt>
 170:	0c 94 24 01 	jmp	0x248	; 0x248 <__bad_interrupt>
 174:	0c 94 24 01 	jmp	0x248	; 0x248 <__bad_interrupt>
 178:	0c 94 24 01 	jmp	0x248	; 0x248 <__bad_interrupt>
 17c:	0c 94 24 01 	jmp	0x248	; 0x248 <__bad_interrupt>
 180:	0c 94 24 01 	jmp	0x248	; 0x248 <__bad_interrupt>
 184:	0c 94 24 01 	jmp	0x248	; 0x248 <__bad_interrupt>
 188:	0c 94 24 01 	jmp	0x248	; 0x248 <__bad_interrupt>
 18c:	0c 94 24 01 	jmp	0x248	; 0x248 <__bad_interrupt>
 190:	0c 94 24 01 	jmp	0x248	; 0x248 <__bad_interrupt>
 194:	0c 94 24 01 	jmp	0x248	; 0x248 <__bad_interrupt>
 198:	0c 94 24 01 	jmp	0x248	; 0x248 <__bad_interrupt>
 19c:	0c 94 24 01 	jmp	0x248	; 0x248 <__bad_interrupt>
 1a0:	0c 94 24 01 	jmp	0x248	; 0x248 <__bad_interrupt>
 1a4:	0c 94 24 01 	jmp	0x248	; 0x248 <__bad_interrupt>
 1a8:	0c 94 24 01 	jmp	0x248	; 0x248 <__bad_interrupt>
 1ac:	0c 94 24 01 	jmp	0x248	; 0x248 <__bad_interrupt>
 1b0:	0c 94 24 01 	jmp	0x248	; 0x248 <__bad_interrupt>
 1b4:	0c 94 24 01 	jmp	0x248	; 0x248 <__bad_interrupt>
 1b8:	0c 94 24 01 	jmp	0x248	; 0x248 <__bad_interrupt>
 1bc:	0c 94 24 01 	jmp	0x248	; 0x248 <__bad_interrupt>
 1c0:	0c 94 24 01 	jmp	0x248	; 0x248 <__bad_interrupt>
 1c4:	0c 94 24 01 	jmp	0x248	; 0x248 <__bad_interrupt>
 1c8:	0c 94 24 01 	jmp	0x248	; 0x248 <__bad_interrupt>
 1cc:	0c 94 24 01 	jmp	0x248	; 0x248 <__bad_interrupt>
 1d0:	0c 94 24 01 	jmp	0x248	; 0x248 <__bad_interrupt>
 1d4:	0c 94 24 01 	jmp	0x248	; 0x248 <__bad_interrupt>
 1d8:	0c 94 24 01 	jmp	0x248	; 0x248 <__bad_interrupt>
 1dc:	0c 94 24 01 	jmp	0x248	; 0x248 <__bad_interrupt>
 1e0:	0c 94 24 01 	jmp	0x248	; 0x248 <__bad_interrupt>
 1e4:	0c 94 24 01 	jmp	0x248	; 0x248 <__bad_interrupt>
 1e8:	0c 94 24 01 	jmp	0x248	; 0x248 <__bad_interrupt>
 1ec:	0c 94 24 01 	jmp	0x248	; 0x248 <__bad_interrupt>
 1f0:	0c 94 24 01 	jmp	0x248	; 0x248 <__bad_interrupt>
 1f4:	0c 94 24 01 	jmp	0x248	; 0x248 <__bad_interrupt>
 1f8:	0c 94 24 01 	jmp	0x248	; 0x248 <__bad_interrupt>

000001fc <__ctors_end>:
 1fc:	11 24       	eor	r1, r1
 1fe:	1f be       	out	0x3f, r1	; 63
 200:	cf ef       	ldi	r28, 0xFF	; 255
 202:	cd bf       	out	0x3d, r28	; 61
 204:	df e3       	ldi	r29, 0x3F	; 63
 206:	de bf       	out	0x3e, r29	; 62
 208:	00 e0       	ldi	r16, 0x00	; 0
 20a:	0c bf       	out	0x3c, r16	; 60
 20c:	18 be       	out	0x38, r1	; 56
 20e:	19 be       	out	0x39, r1	; 57
 210:	1a be       	out	0x3a, r1	; 58
 212:	1b be       	out	0x3b, r1	; 59

00000214 <__do_copy_data>:
 214:	10 e2       	ldi	r17, 0x20	; 32
 216:	a0 e0       	ldi	r26, 0x00	; 0
 218:	b0 e2       	ldi	r27, 0x20	; 32
 21a:	ea ee       	ldi	r30, 0xEA	; 234
 21c:	f5 e0       	ldi	r31, 0x05	; 5
 21e:	00 e0       	ldi	r16, 0x00	; 0
 220:	0b bf       	out	0x3b, r16	; 59
 222:	02 c0       	rjmp	.+4      	; 0x228 <__do_copy_data+0x14>
 224:	07 90       	elpm	r0, Z+
 226:	0d 92       	st	X+, r0
 228:	a4 31       	cpi	r26, 0x14	; 20
 22a:	b1 07       	cpc	r27, r17
 22c:	d9 f7       	brne	.-10     	; 0x224 <__do_copy_data+0x10>
 22e:	1b be       	out	0x3b, r1	; 59

00000230 <__do_clear_bss>:
 230:	20 e2       	ldi	r18, 0x20	; 32
 232:	a4 e1       	ldi	r26, 0x14	; 20
 234:	b0 e2       	ldi	r27, 0x20	; 32
 236:	01 c0       	rjmp	.+2      	; 0x23a <.do_clear_bss_start>

00000238 <.do_clear_bss_loop>:
 238:	1d 92       	st	X+, r1

0000023a <.do_clear_bss_start>:
 23a:	a2 32       	cpi	r26, 0x22	; 34
 23c:	b2 07       	cpc	r27, r18
 23e:	e1 f7       	brne	.-8      	; 0x238 <.do_clear_bss_loop>
 240:	0e 94 8d 02 	call	0x51a	; 0x51a <main>
 244:	0c 94 f3 02 	jmp	0x5e6	; 0x5e6 <_exit>

00000248 <__bad_interrupt>:
 248:	0c 94 00 00 	jmp	0	; 0x0 <__vectors>

0000024c <Change_CLK_32HZ>:
; Outputs: No direct outputs
*/
void Change_CLK_32HZ(void){
	
	//Set the clk config
	OSC_CTRL = NEW_CLOCK_FREQ;
 24c:	80 91 12 20 	lds	r24, 0x2012	; 0x802012 <NEW_CLOCK_FREQ>
 250:	80 93 50 00 	sts	0x0050, r24	; 0x800050 <__TEXT_REGION_LENGTH__+0x700050>
	
	//Wait for the right flag to be set in the OSC_STATUS reg
	while((OSC_STATUS & PIN1_bm) != PIN1_bm);
 254:	80 91 51 00 	lds	r24, 0x0051	; 0x800051 <__TEXT_REGION_LENGTH__+0x700051>
 258:	81 ff       	sbrs	r24, 1
 25a:	fc cf       	rjmp	.-8      	; 0x254 <Change_CLK_32HZ+0x8>
	
	//Write the “IOREG” signature to the CPU_CCP reg
	CPU_CCP = CCP_IOREG_gc;
 25c:	88 ed       	ldi	r24, 0xD8	; 216
 25e:	84 bf       	out	0x34, r24	; 52
	
	//Select the new clock source in the CLK_CTRL reg
	CLK_CTRL = CLK_SCLKSEL_RC32M_gc;
 260:	81 e0       	ldi	r24, 0x01	; 1
 262:	80 93 40 00 	sts	0x0040, r24	; 0x800040 <__TEXT_REGION_LENGTH__+0x700040>
 266:	08 95       	ret

00000268 <LSM_READ>:
/*********************Function**************************************
; Function Name: LSM_READ
; Inputs: uint8_t:=SS_choice, uint8_t:=reg
; Outputs: uint8_:=spiRead()
*/
uint8_t LSM_READ(uint8_t SS_choice, uint8_t reg){
 268:	cf 93       	push	r28
 26a:	c8 2f       	mov	r28, r24
	//IF GYRO
	if(SS_choice == 0){
 26c:	81 11       	cpse	r24, r1
 26e:	05 c0       	rjmp	.+10     	; 0x27a <LSM_READ+0x12>
		PORTF.OUTCLR = PIN2_bm;	//SENSOR_SEL
 270:	84 e0       	ldi	r24, 0x04	; 4
 272:	80 93 a6 06 	sts	0x06A6, r24	; 0x8006a6 <__TEXT_REGION_LENGTH__+0x7006a6>
		PORTF.OUTCLR = PIN4_bm; //SSG
 276:	80 e1       	ldi	r24, 0x10	; 16
 278:	06 c0       	rjmp	.+12     	; 0x286 <LSM_READ+0x1e>
	}
	//ELSE IF accelerometer
	else if(SS_choice == 1){
 27a:	81 30       	cpi	r24, 0x01	; 1
 27c:	31 f4       	brne	.+12     	; 0x28a <LSM_READ+0x22>
		PORTF.OUTSET = PIN2_bm;	//SENSOR_SEL
 27e:	84 e0       	ldi	r24, 0x04	; 4
 280:	80 93 a5 06 	sts	0x06A5, r24	; 0x8006a5 <__TEXT_REGION_LENGTH__+0x7006a5>
		PORTF.OUTCLR = PIN3_bm;	//SSA
 284:	88 e0       	ldi	r24, 0x08	; 8
 286:	80 93 a6 06 	sts	0x06A6, r24	; 0x8006a6 <__TEXT_REGION_LENGTH__+0x7006a6>
	}
	
	//Address OR with READ CYCLE enable
	spiWrite( (reg | PIN7_bm) );
 28a:	86 2f       	mov	r24, r22
 28c:	80 68       	ori	r24, 0x80	; 128
 28e:	0e 94 c2 02 	call	0x584	; 0x584 <spiWrite>
	uint8_t result = spiRead();
 292:	0e 94 cb 02 	call	0x596	; 0x596 <spiRead>
	
	//IF GYRO
	if(SS_choice == 0){
 296:	c1 11       	cpse	r28, r1
 298:	02 c0       	rjmp	.+4      	; 0x29e <LSM_READ+0x36>
		PORTF.OUTSET = PIN4_bm;	//SSG
 29a:	90 e1       	ldi	r25, 0x10	; 16
 29c:	03 c0       	rjmp	.+6      	; 0x2a4 <LSM_READ+0x3c>
	}
	//ELSE IF accelerometer
	else if(SS_choice == 1){
 29e:	c1 30       	cpi	r28, 0x01	; 1
 2a0:	19 f4       	brne	.+6      	; 0x2a8 <LSM_READ+0x40>
		PORTF.OUTSET = PIN3_bm;	//SSA
 2a2:	98 e0       	ldi	r25, 0x08	; 8
 2a4:	90 93 a5 06 	sts	0x06A5, r25	; 0x8006a5 <__TEXT_REGION_LENGTH__+0x7006a5>
	}
	
	//return from function
	return(result);
}
 2a8:	cf 91       	pop	r28
 2aa:	08 95       	ret

000002ac <LSM_WRITE>:
/*********************Function**************************************
; Function Name: LSM_WRITE
; Inputs: uint8_t:=SS_choice, uint8_t:=reg, uint8_t:=reg_data
; Outputs: No direct outputs
*/
void LSM_WRITE(uint8_t SS_choice, uint8_t reg, uint8_t reg_data){
 2ac:	cf 93       	push	r28
 2ae:	df 93       	push	r29
 2b0:	c8 2f       	mov	r28, r24
 2b2:	86 2f       	mov	r24, r22
 2b4:	d4 2f       	mov	r29, r20
	//IF GYRO
	if(SS_choice == 0){
 2b6:	c1 11       	cpse	r28, r1
 2b8:	05 c0       	rjmp	.+10     	; 0x2c4 <LSM_WRITE+0x18>
		PORTF.OUTCLR = PIN2_bm;	//SENSOR_SEL
 2ba:	94 e0       	ldi	r25, 0x04	; 4
 2bc:	90 93 a6 06 	sts	0x06A6, r25	; 0x8006a6 <__TEXT_REGION_LENGTH__+0x7006a6>
		PORTF.OUTCLR = PIN4_bm; //SSG
 2c0:	90 e1       	ldi	r25, 0x10	; 16
 2c2:	06 c0       	rjmp	.+12     	; 0x2d0 <LSM_WRITE+0x24>
	}
	//ELSE IF accelerometer
	else if(SS_choice == 1){
 2c4:	c1 30       	cpi	r28, 0x01	; 1
 2c6:	31 f4       	brne	.+12     	; 0x2d4 <LSM_WRITE+0x28>
		PORTF.OUTSET = PIN2_bm;	//SENSOR_SEL
 2c8:	94 e0       	ldi	r25, 0x04	; 4
 2ca:	90 93 a5 06 	sts	0x06A5, r25	; 0x8006a5 <__TEXT_REGION_LENGTH__+0x7006a5>
		PORTF.OUTCLR = PIN3_bm;	//SSA
 2ce:	98 e0       	ldi	r25, 0x08	; 8
 2d0:	90 93 a6 06 	sts	0x06A6, r25	; 0x8006a6 <__TEXT_REGION_LENGTH__+0x7006a6>
	}
	
	//Write reg address then data
	spiWrite(reg);
 2d4:	0e 94 c2 02 	call	0x584	; 0x584 <spiWrite>
	spiWrite(reg_data);
 2d8:	8d 2f       	mov	r24, r29
 2da:	0e 94 c2 02 	call	0x584	; 0x584 <spiWrite>
	
	//IF GYRO
	if(SS_choice == 0){
 2de:	c1 11       	cpse	r28, r1
 2e0:	02 c0       	rjmp	.+4      	; 0x2e6 <LSM_WRITE+0x3a>
		PORTF.OUTSET = PIN4_bm;	//SSG
 2e2:	80 e1       	ldi	r24, 0x10	; 16
 2e4:	03 c0       	rjmp	.+6      	; 0x2ec <LSM_WRITE+0x40>
	}
	//ELSE IF accelerometer
	else if(SS_choice == 1){
 2e6:	c1 30       	cpi	r28, 0x01	; 1
 2e8:	19 f4       	brne	.+6      	; 0x2f0 <LSM_WRITE+0x44>
		PORTF.OUTSET = PIN3_bm;	//SSA
 2ea:	88 e0       	ldi	r24, 0x08	; 8
 2ec:	80 93 a5 06 	sts	0x06A5, r24	; 0x8006a5 <__TEXT_REGION_LENGTH__+0x7006a5>
	}
	
	//return from function
	return;
}
 2f0:	df 91       	pop	r29
 2f2:	cf 91       	pop	r28
 2f4:	08 95       	ret

000002f6 <accel_init>:
; Inputs: No direct inputs
; Outputs: No direct outputs
*/
void accel_init(void){
	//Set up interrupt
	PORTC.DIRCLR = PIN7_bm;
 2f6:	e0 e4       	ldi	r30, 0x40	; 64
 2f8:	f6 e0       	ldi	r31, 0x06	; 6
 2fa:	80 e8       	ldi	r24, 0x80	; 128
 2fc:	82 83       	std	Z+2, r24	; 0x02
	PORTC.INTCTRL = PORTC_INTCTRL_CONFIG;
 2fe:	80 91 0b 20 	lds	r24, 0x200B	; 0x80200b <PORTC_INTCTRL_CONFIG>
 302:	81 87       	std	Z+9, r24	; 0x09
	PORTC.INT0MASK = PORTC_INT0MASK_CONFIG;
 304:	80 91 0a 20 	lds	r24, 0x200A	; 0x80200a <PORTC_INT0MASK_CONFIG>
 308:	82 87       	std	Z+10, r24	; 0x0a
	PORTC.PIN7CTRL = PORTC_PIN7CTRL_CONFIG;
 30a:	80 91 09 20 	lds	r24, 0x2009	; 0x802009 <PORTC_PIN7CTRL_CONFIG>
 30e:	87 8b       	std	Z+23, r24	; 0x17

	// route the DRDY signal to INT1_A and enable
	//INT1 with a rising edge (active high)
	LSM_WRITE(1, CTRL_REG4_A, 0xC8);
 310:	48 ec       	ldi	r20, 0xC8	; 200
 312:	63 e2       	ldi	r22, 0x23	; 35
 314:	81 e0       	ldi	r24, 0x01	; 1
 316:	0e 94 56 01 	call	0x2ac	; 0x2ac <LSM_WRITE>
	
	//configure the accelerometer to have the highest
	//possible output data rate as well as enable the X, Y,
	//and Z axes.
	LSM_WRITE(1, CTRL_REG5_A, 0x97);
 31a:	47 e9       	ldi	r20, 0x97	; 151
 31c:	60 e2       	ldi	r22, 0x20	; 32
 31e:	81 e0       	ldi	r24, 0x01	; 1
 320:	0c 94 56 01 	jmp	0x2ac	; 0x2ac <LSM_WRITE>

00000324 <gyro_init>:
; Inputs: No direct inputs
; Outputs: No direct outputs
*/
void gyro_init(void){
	//Set up interrupt
	PORTA.DIRCLR = PIN1_bm;
 324:	e0 e0       	ldi	r30, 0x00	; 0
 326:	f6 e0       	ldi	r31, 0x06	; 6
 328:	82 e0       	ldi	r24, 0x02	; 2
 32a:	82 83       	std	Z+2, r24	; 0x02
	PORTA.INTCTRL = PORTA_INTCTRL_CONFIG;
 32c:	80 91 08 20 	lds	r24, 0x2008	; 0x802008 <PORTA_INTCTRL_CONFIG>
 330:	81 87       	std	Z+9, r24	; 0x09
	PORTA.INT0MASK = PORTA_INT0MASK_CONFIG;
 332:	80 91 07 20 	lds	r24, 0x2007	; 0x802007 <PORTA_INT0MASK_CONFIG>
 336:	82 87       	std	Z+10, r24	; 0x0a
	PORTA.PIN1CTRL = PORTA_PIN1CTRL_CONFIG;
 338:	80 91 06 20 	lds	r24, 0x2006	; 0x802006 <PORTA_PIN1CTRL_CONFIG>
 33c:	81 8b       	std	Z+17, r24	; 0x11
	
	//GYRO_ENABLE bit on PORTA
	PORTA.OUTSET = PIN3_bm;
 33e:	88 e0       	ldi	r24, 0x08	; 8
 340:	85 83       	std	Z+5, r24	; 0x05
	
	//configure the gyroscope to have the highest possible
	//output data rate as well as enable the X, Y, and Z axes.
	LSM_WRITE(0, CTRL_REG1_G, 0xCF);
 342:	4f ec       	ldi	r20, 0xCF	; 207
 344:	60 e2       	ldi	r22, 0x20	; 32
 346:	80 e0       	ldi	r24, 0x00	; 0
 348:	0e 94 56 01 	call	0x2ac	; 0x2ac <LSM_WRITE>
	
	//Set the I2_DRDY bit
	LSM_WRITE(0, CTRL_REG3_G, 0x08);
 34c:	48 e0       	ldi	r20, 0x08	; 8
 34e:	62 e2       	ldi	r22, 0x22	; 34
 350:	80 e0       	ldi	r24, 0x00	; 0
 352:	0e 94 56 01 	call	0x2ac	; 0x2ac <LSM_WRITE>
	
	// Choose 2000 dps for the full-scale selection bits
	LSM_WRITE(0, CTRL_REG4_G, 0x30);
 356:	40 e3       	ldi	r20, 0x30	; 48
 358:	63 e2       	ldi	r22, 0x23	; 35
 35a:	80 e0       	ldi	r24, 0x00	; 0
 35c:	0c 94 56 01 	jmp	0x2ac	; 0x2ac <LSM_WRITE>

00000360 <__vector_66>:
/*********************ISR**************************************
; Interrupt Type: PORTA_INT0_vect
; Inputs: No direct inputs
; Outputs: No direct outputs
*/
ISR(PORTA_INT0_vect){
 360:	1f 92       	push	r1
 362:	0f 92       	push	r0
 364:	0f b6       	in	r0, 0x3f	; 63
 366:	0f 92       	push	r0
 368:	11 24       	eor	r1, r1
 36a:	08 b6       	in	r0, 0x38	; 56
 36c:	0f 92       	push	r0
 36e:	18 be       	out	0x38, r1	; 56
 370:	8f 93       	push	r24
 372:	9f 93       	push	r25
	//Preserve Status Reg
	uint8_t temp = CPU_SREG;
 374:	9f b7       	in	r25, 0x3f	; 63

	//Set int flags
	PORTA.INTFLAGS = 0x01;
 376:	81 e0       	ldi	r24, 0x01	; 1
 378:	80 93 0c 06 	sts	0x060C, r24	; 0x80060c <__TEXT_REGION_LENGTH__+0x70060c>

	//Set global var flag
	gyroDataReady = 0x01;
 37c:	80 93 20 20 	sts	0x2020, r24	; 0x802020 <gyroDataReady>
	
	//Restore Status Reg
	CPU_SREG = temp;
 380:	9f bf       	out	0x3f, r25	; 63
	
	//Return from function
	return;
}
 382:	9f 91       	pop	r25
 384:	8f 91       	pop	r24
 386:	0f 90       	pop	r0
 388:	08 be       	out	0x38, r0	; 56
 38a:	0f 90       	pop	r0
 38c:	0f be       	out	0x3f, r0	; 63
 38e:	0f 90       	pop	r0
 390:	1f 90       	pop	r1
 392:	18 95       	reti

00000394 <__vector_2>:
/*********************ISR**************************************
; Interrupt Type: PORTC_INT0_vect
; Inputs: No direct inputs
; Outputs: No direct outputs
*/
ISR(PORTC_INT0_vect){
 394:	1f 92       	push	r1
 396:	0f 92       	push	r0
 398:	0f b6       	in	r0, 0x3f	; 63
 39a:	0f 92       	push	r0
 39c:	11 24       	eor	r1, r1
 39e:	08 b6       	in	r0, 0x38	; 56
 3a0:	0f 92       	push	r0
 3a2:	18 be       	out	0x38, r1	; 56
 3a4:	8f 93       	push	r24
 3a6:	9f 93       	push	r25
	//Preserve Status Reg
	uint8_t temp = CPU_SREG;
 3a8:	9f b7       	in	r25, 0x3f	; 63

	//Set int flags
	PORTC.INTFLAGS = 0x01;
 3aa:	81 e0       	ldi	r24, 0x01	; 1
 3ac:	80 93 4c 06 	sts	0x064C, r24	; 0x80064c <__TEXT_REGION_LENGTH__+0x70064c>

	//Set global var flag
	accelDataReady = 0x01;
 3b0:	80 93 21 20 	sts	0x2021, r24	; 0x802021 <accelDataReady>
	
	//Restore Status Reg
	CPU_SREG = temp;
 3b4:	9f bf       	out	0x3f, r25	; 63
	
	//Return from function
	return;
}
 3b6:	9f 91       	pop	r25
 3b8:	8f 91       	pop	r24
 3ba:	0f 90       	pop	r0
 3bc:	08 be       	out	0x38, r0	; 56
 3be:	0f 90       	pop	r0
 3c0:	0f be       	out	0x3f, r0	; 63
 3c2:	0f 90       	pop	r0
 3c4:	1f 90       	pop	r1
 3c6:	18 95       	reti

000003c8 <DISPLAY_GYROACCEL_INFO>:
; Inputs: No direct inputs
; Outputs: No direct outputs
*/
void DISPLAY_GYROACCEL_INFO(void){
	//Transmit start byte as seen in example
	OUT_CHAR(0x03);
 3c8:	83 e0       	ldi	r24, 0x03	; 3
 3ca:	0e 94 ec 02 	call	0x5d8	; 0x5d8 <OUT_CHAR>
	
	//OUT CHAR ACCEL DATA
	OUT_CHAR(accel_xL);
 3ce:	80 91 1f 20 	lds	r24, 0x201F	; 0x80201f <accel_xL>
 3d2:	0e 94 ec 02 	call	0x5d8	; 0x5d8 <OUT_CHAR>
	OUT_CHAR(accel_xH);
 3d6:	80 91 1e 20 	lds	r24, 0x201E	; 0x80201e <accel_xH>
 3da:	0e 94 ec 02 	call	0x5d8	; 0x5d8 <OUT_CHAR>
	OUT_CHAR(accel_yL);
 3de:	80 91 1d 20 	lds	r24, 0x201D	; 0x80201d <accel_yL>
 3e2:	0e 94 ec 02 	call	0x5d8	; 0x5d8 <OUT_CHAR>
	OUT_CHAR(accel_yH);
 3e6:	80 91 1c 20 	lds	r24, 0x201C	; 0x80201c <accel_yH>
 3ea:	0e 94 ec 02 	call	0x5d8	; 0x5d8 <OUT_CHAR>
	OUT_CHAR(accel_zL);
 3ee:	80 91 1b 20 	lds	r24, 0x201B	; 0x80201b <accel_zL>
 3f2:	0e 94 ec 02 	call	0x5d8	; 0x5d8 <OUT_CHAR>
	OUT_CHAR(accel_zH);
 3f6:	80 91 1a 20 	lds	r24, 0x201A	; 0x80201a <accel_zH>
 3fa:	0e 94 ec 02 	call	0x5d8	; 0x5d8 <OUT_CHAR>
	
	//OUT_CHAR GYR0 DATA
	OUT_CHAR(gyro_xL);
 3fe:	80 91 19 20 	lds	r24, 0x2019	; 0x802019 <gyro_xL>
 402:	0e 94 ec 02 	call	0x5d8	; 0x5d8 <OUT_CHAR>
	OUT_CHAR(gyro_xH);
 406:	80 91 18 20 	lds	r24, 0x2018	; 0x802018 <gyro_xH>
 40a:	0e 94 ec 02 	call	0x5d8	; 0x5d8 <OUT_CHAR>
	OUT_CHAR(gyro_yL);
 40e:	80 91 17 20 	lds	r24, 0x2017	; 0x802017 <gyro_yL>
 412:	0e 94 ec 02 	call	0x5d8	; 0x5d8 <OUT_CHAR>
	OUT_CHAR(gyro_yH);
 416:	80 91 16 20 	lds	r24, 0x2016	; 0x802016 <gyro_yH>
 41a:	0e 94 ec 02 	call	0x5d8	; 0x5d8 <OUT_CHAR>
	OUT_CHAR(gyro_zL);
 41e:	80 91 15 20 	lds	r24, 0x2015	; 0x802015 <gyro_zL>
 422:	0e 94 ec 02 	call	0x5d8	; 0x5d8 <OUT_CHAR>
	OUT_CHAR(gyro_zH);
 426:	80 91 14 20 	lds	r24, 0x2014	; 0x802014 <__data_end>
 42a:	0e 94 ec 02 	call	0x5d8	; 0x5d8 <OUT_CHAR>
	
	//OUT_CHAR ~0xFC
	OUT_CHAR(0xFC);
 42e:	8c ef       	ldi	r24, 0xFC	; 252
 430:	0c 94 ec 02 	jmp	0x5d8	; 0x5d8 <OUT_CHAR>

00000434 <READ_DATA_ACCEL>:
; Inputs: No direct inputs
; Outputs: No direct outputs
*/
void READ_DATA_ACCEL(void){
	//Read accel data
	accel_xL = LSM_READ(1, OUT_X_L_A);
 434:	68 e2       	ldi	r22, 0x28	; 40
 436:	81 e0       	ldi	r24, 0x01	; 1
 438:	0e 94 34 01 	call	0x268	; 0x268 <LSM_READ>
 43c:	80 93 1f 20 	sts	0x201F, r24	; 0x80201f <accel_xL>
	accel_xH = LSM_READ(1, OUT_X_H_A);
 440:	69 e2       	ldi	r22, 0x29	; 41
 442:	81 e0       	ldi	r24, 0x01	; 1
 444:	0e 94 34 01 	call	0x268	; 0x268 <LSM_READ>
 448:	80 93 1e 20 	sts	0x201E, r24	; 0x80201e <accel_xH>
	accel_yL = LSM_READ(1, OUT_Y_L_A);
 44c:	6a e2       	ldi	r22, 0x2A	; 42
 44e:	81 e0       	ldi	r24, 0x01	; 1
 450:	0e 94 34 01 	call	0x268	; 0x268 <LSM_READ>
 454:	80 93 1d 20 	sts	0x201D, r24	; 0x80201d <accel_yL>
	accel_yH = LSM_READ(1, OUT_Y_H_A);
 458:	6b e2       	ldi	r22, 0x2B	; 43
 45a:	81 e0       	ldi	r24, 0x01	; 1
 45c:	0e 94 34 01 	call	0x268	; 0x268 <LSM_READ>
 460:	80 93 1c 20 	sts	0x201C, r24	; 0x80201c <accel_yH>
	accel_zL = LSM_READ(1, OUT_Z_L_A);
 464:	6c e2       	ldi	r22, 0x2C	; 44
 466:	81 e0       	ldi	r24, 0x01	; 1
 468:	0e 94 34 01 	call	0x268	; 0x268 <LSM_READ>
 46c:	80 93 1b 20 	sts	0x201B, r24	; 0x80201b <accel_zL>
	accel_zH = LSM_READ(1, OUT_Z_H_A);
 470:	6d e2       	ldi	r22, 0x2D	; 45
 472:	81 e0       	ldi	r24, 0x01	; 1
 474:	0e 94 34 01 	call	0x268	; 0x268 <LSM_READ>
 478:	80 93 1a 20 	sts	0x201A, r24	; 0x80201a <accel_zH>
	
	//Reset accel global flag
	accelDataReady = 0;
 47c:	10 92 21 20 	sts	0x2021, r1	; 0x802021 <accelDataReady>
 480:	08 95       	ret

00000482 <READ_DATA_GYRO>:
; Inputs: No direct inputs
; Outputs: No direct outputs
*/
void READ_DATA_GYRO(void){
	//Read Gyro data
	gyro_xL = LSM_READ(0, OUT_X_L_G);
 482:	68 e2       	ldi	r22, 0x28	; 40
 484:	80 e0       	ldi	r24, 0x00	; 0
 486:	0e 94 34 01 	call	0x268	; 0x268 <LSM_READ>
 48a:	80 93 19 20 	sts	0x2019, r24	; 0x802019 <gyro_xL>
	gyro_xH = LSM_READ(0, OUT_X_H_G);
 48e:	69 e2       	ldi	r22, 0x29	; 41
 490:	80 e0       	ldi	r24, 0x00	; 0
 492:	0e 94 34 01 	call	0x268	; 0x268 <LSM_READ>
 496:	80 93 18 20 	sts	0x2018, r24	; 0x802018 <gyro_xH>
	gyro_yL = LSM_READ(0, OUT_Y_L_G);
 49a:	6a e2       	ldi	r22, 0x2A	; 42
 49c:	80 e0       	ldi	r24, 0x00	; 0
 49e:	0e 94 34 01 	call	0x268	; 0x268 <LSM_READ>
 4a2:	80 93 17 20 	sts	0x2017, r24	; 0x802017 <gyro_yL>
	gyro_yH = LSM_READ(0, OUT_Y_H_G);
 4a6:	6b e2       	ldi	r22, 0x2B	; 43
 4a8:	80 e0       	ldi	r24, 0x00	; 0
 4aa:	0e 94 34 01 	call	0x268	; 0x268 <LSM_READ>
 4ae:	80 93 16 20 	sts	0x2016, r24	; 0x802016 <gyro_yH>
	gyro_zL = LSM_READ(0, OUT_Z_L_G);
 4b2:	6c e2       	ldi	r22, 0x2C	; 44
 4b4:	80 e0       	ldi	r24, 0x00	; 0
 4b6:	0e 94 34 01 	call	0x268	; 0x268 <LSM_READ>
 4ba:	80 93 15 20 	sts	0x2015, r24	; 0x802015 <gyro_zL>
	gyro_zH = LSM_READ(0, OUT_Z_H_G);
 4be:	6d e2       	ldi	r22, 0x2D	; 45
 4c0:	80 e0       	ldi	r24, 0x00	; 0
 4c2:	0e 94 34 01 	call	0x268	; 0x268 <LSM_READ>
 4c6:	80 93 14 20 	sts	0x2014, r24	; 0x802014 <__data_end>
	
	//Reset gyro global flag
	gyroDataReady = 0;
 4ca:	10 92 20 20 	sts	0x2020, r1	; 0x802020 <gyroDataReady>
 4ce:	08 95       	ret

000004d0 <CLR_GYRO>:


void CLR_GYRO(void){
	
	//STORE GYRO info
	gyro_xH = LSM_READ(0, OUT_X_H_G);
 4d0:	69 e2       	ldi	r22, 0x29	; 41
 4d2:	80 e0       	ldi	r24, 0x00	; 0
 4d4:	0e 94 34 01 	call	0x268	; 0x268 <LSM_READ>
 4d8:	80 93 18 20 	sts	0x2018, r24	; 0x802018 <gyro_xH>
	gyro_xL = LSM_READ(0, OUT_X_L_G);
 4dc:	68 e2       	ldi	r22, 0x28	; 40
 4de:	80 e0       	ldi	r24, 0x00	; 0
 4e0:	0e 94 34 01 	call	0x268	; 0x268 <LSM_READ>
 4e4:	80 93 19 20 	sts	0x2019, r24	; 0x802019 <gyro_xL>
	gyro_yH = LSM_READ(0, OUT_Y_H_G);
 4e8:	6b e2       	ldi	r22, 0x2B	; 43
 4ea:	80 e0       	ldi	r24, 0x00	; 0
 4ec:	0e 94 34 01 	call	0x268	; 0x268 <LSM_READ>
 4f0:	80 93 16 20 	sts	0x2016, r24	; 0x802016 <gyro_yH>
	gyro_yL = LSM_READ(0, OUT_Y_L_G);
 4f4:	6a e2       	ldi	r22, 0x2A	; 42
 4f6:	80 e0       	ldi	r24, 0x00	; 0
 4f8:	0e 94 34 01 	call	0x268	; 0x268 <LSM_READ>
 4fc:	80 93 17 20 	sts	0x2017, r24	; 0x802017 <gyro_yL>
	gyro_zH = LSM_READ(0, OUT_Z_H_G);
 500:	6d e2       	ldi	r22, 0x2D	; 45
 502:	80 e0       	ldi	r24, 0x00	; 0
 504:	0e 94 34 01 	call	0x268	; 0x268 <LSM_READ>
 508:	80 93 14 20 	sts	0x2014, r24	; 0x802014 <__data_end>
	gyro_zL = LSM_READ(0, OUT_Z_L_G);
 50c:	6c e2       	ldi	r22, 0x2C	; 44
 50e:	80 e0       	ldi	r24, 0x00	; 0
 510:	0e 94 34 01 	call	0x268	; 0x268 <LSM_READ>
 514:	80 93 15 20 	sts	0x2015, r24	; 0x802015 <gyro_zL>
 518:	08 95       	ret

0000051a <main>:
#include "LSM.h"
#include "LSM330.h"

int main(void){
	//Set up code
	Change_CLK_32HZ();
 51a:	0e 94 26 01 	call	0x24c	; 0x24c <Change_CLK_32HZ>
	USART_INIT();
 51e:	0e 94 ce 02 	call	0x59c	; 0x59c <USART_INIT>
	spi_init();
 522:	0e 94 aa 02 	call	0x554	; 0x554 <spi_init>
	accel_init();
 526:	0e 94 7b 01 	call	0x2f6	; 0x2f6 <accel_init>
	gyro_init();
 52a:	0e 94 92 01 	call	0x324	; 0x324 <gyro_init>
	
	//Set up interrupts
	PMIC.CTRL = 0x07;
 52e:	87 e0       	ldi	r24, 0x07	; 7
 530:	80 93 a2 00 	sts	0x00A2, r24	; 0x8000a2 <__TEXT_REGION_LENGTH__+0x7000a2>
	sei();
 534:	78 94       	sei

	//Clear data in Gyro	
	CLR_GYRO();	
 536:	0e 94 68 02 	call	0x4d0	; 0x4d0 <CLR_GYRO>
	
	//WHILE(1)
	while(TRUE){
		//IF accel data is ready
		if(accelDataReady){
 53a:	80 91 21 20 	lds	r24, 0x2021	; 0x802021 <accelDataReady>
 53e:	81 11       	cpse	r24, r1
			READ_DATA_ACCEL();
 540:	0e 94 1a 02 	call	0x434	; 0x434 <READ_DATA_ACCEL>
		}
		
		//IF Gyro data is ready
		if(gyroDataReady){
 544:	80 91 20 20 	lds	r24, 0x2020	; 0x802020 <gyroDataReady>
 548:	81 11       	cpse	r24, r1
			READ_DATA_GYRO();
 54a:	0e 94 41 02 	call	0x482	; 0x482 <READ_DATA_GYRO>
		}
		
		//Display data through USART
		DISPLAY_GYROACCEL_INFO();
 54e:	0e 94 e4 01 	call	0x3c8	; 0x3c8 <DISPLAY_GYROACCEL_INFO>
	}
 552:	f3 cf       	rjmp	.-26     	; 0x53a <main+0x20>

00000554 <spi_init>:
; Outputs: No direct outputs
*/
void spi_init(void){

	//Set up port F
	PORTF.DIRSET = PORTF_DIRSET_CONFIG;
 554:	80 91 11 20 	lds	r24, 0x2011	; 0x802011 <PORTF_DIRSET_CONFIG>
 558:	e0 ea       	ldi	r30, 0xA0	; 160
 55a:	f6 e0       	ldi	r31, 0x06	; 6
 55c:	81 83       	std	Z+1, r24	; 0x01
	PORTF.DIRCLR = PORTF_DIRCLR_CONFIG;
 55e:	80 91 10 20 	lds	r24, 0x2010	; 0x802010 <PORTF_DIRCLR_CONFIG>
 562:	82 83       	std	Z+2, r24	; 0x02
	PORTF.OUTSET = PORTF_OUTSET_CONFIG;
 564:	80 91 0f 20 	lds	r24, 0x200F	; 0x80200f <PORTF_OUTSET_CONFIG>
 568:	85 83       	std	Z+5, r24	; 0x05
	
	//Set up port A
	PORTA.DIRSET = PORTA_DIRSET_CONFIG;
 56a:	80 91 0e 20 	lds	r24, 0x200E	; 0x80200e <PORTA_DIRSET_CONFIG>
 56e:	e0 e0       	ldi	r30, 0x00	; 0
 570:	f6 e0       	ldi	r31, 0x06	; 6
 572:	81 83       	std	Z+1, r24	; 0x01
	PORTA.OUTCLR = PORTA_OUTCLR_CONFIG;
 574:	80 91 0d 20 	lds	r24, 0x200D	; 0x80200d <PORTA_OUTCLR_CONFIG>
 578:	86 83       	std	Z+6, r24	; 0x06
	
	//Set up SPI
	SPIF.CTRL = SPI_CTRL_CONFIG;//0x5F
 57a:	80 91 0c 20 	lds	r24, 0x200C	; 0x80200c <SPI_CTRL_CONFIG>
 57e:	80 93 c0 0b 	sts	0x0BC0, r24	; 0x800bc0 <__TEXT_REGION_LENGTH__+0x700bc0>
 582:	08 95       	ret

00000584 <spiWrite>:
; Inputs: uint8_t:=DATA
; Outputs: uint8_t:=SPIF.DATA
*/
uint8_t spiWrite(uint8_t data){
	//Write to DATA reg
	SPIF.DATA = data;
 584:	80 93 c3 0b 	sts	0x0BC3, r24	; 0x800bc3 <__TEXT_REGION_LENGTH__+0x700bc3>
	
	//Wait for transfer to finish
	while((SPIF.STATUS & 0x80) != 0x80);
 588:	80 91 c2 0b 	lds	r24, 0x0BC2	; 0x800bc2 <__TEXT_REGION_LENGTH__+0x700bc2>
 58c:	87 ff       	sbrs	r24, 7
 58e:	fc cf       	rjmp	.-8      	; 0x588 <spiWrite+0x4>
	
	//Return data in SPIF.DATA
	return (SPIF.DATA);
 590:	80 91 c3 0b 	lds	r24, 0x0BC3	; 0x800bc3 <__TEXT_REGION_LENGTH__+0x700bc3>
}
 594:	08 95       	ret

00000596 <spiRead>:
; Function Name: spiRead
; Inputs: No direct input
; Outputs: uint8_t:=SPIF.DATA
*/
uint8_t spiRead(){
	return(spiWrite(0xFF));
 596:	8f ef       	ldi	r24, 0xFF	; 255
 598:	0c 94 c2 02 	jmp	0x584	; 0x584 <spiWrite>

0000059c <USART_INIT>:
; Inputs: No inputs
; Outputs: No outputs
*/
void USART_INIT(void){
	// Set port D for USART com
	PORTD.DIRSET = pin_Tx;
 59c:	80 91 05 20 	lds	r24, 0x2005	; 0x802005 <pin_Tx>
 5a0:	e0 e6       	ldi	r30, 0x60	; 96
 5a2:	f6 e0       	ldi	r31, 0x06	; 6
 5a4:	81 83       	std	Z+1, r24	; 0x01
	PORTD.OUTSET = pin_Tx;
 5a6:	85 83       	std	Z+5, r24	; 0x05
	PORTD.DIRCLR = pin_Rx;
 5a8:	80 91 04 20 	lds	r24, 0x2004	; 0x802004 <pin_Rx>
 5ac:	82 83       	std	Z+2, r24	; 0x02
	
	//Set up Ctrl B and C
	USARTD0_CTRLB = TxRx_On;
 5ae:	80 91 03 20 	lds	r24, 0x2003	; 0x802003 <TxRx_On>
 5b2:	80 93 a4 09 	sts	0x09A4, r24	; 0x8009a4 <__TEXT_REGION_LENGTH__+0x7009a4>
	USARTD0_CTRLC = usart_ctrl_C;
 5b6:	80 91 02 20 	lds	r24, 0x2002	; 0x802002 <usart_ctrl_C>
 5ba:	80 93 a5 09 	sts	0x09A5, r24	; 0x8009a5 <__TEXT_REGION_LENGTH__+0x7009a5>
	
	//Set up baud rate
	USARTD0.BAUDCTRLA = BSEL & 0xFF;
 5be:	80 91 01 20 	lds	r24, 0x2001	; 0x802001 <BSEL>
 5c2:	e0 ea       	ldi	r30, 0xA0	; 160
 5c4:	f9 e0       	ldi	r31, 0x09	; 9
 5c6:	86 83       	std	Z+6, r24	; 0x06
	USARTD0.BAUDCTRLB = (BSCALE <<4 & 0xF0);
 5c8:	80 91 00 20 	lds	r24, 0x2000	; 0x802000 <BSCALE>
 5cc:	20 e1       	ldi	r18, 0x10	; 16
 5ce:	82 9f       	mul	r24, r18
 5d0:	c0 01       	movw	r24, r0
 5d2:	11 24       	eor	r1, r1
 5d4:	87 83       	std	Z+7, r24	; 0x07
 5d6:	08 95       	ret

000005d8 <OUT_CHAR>:
; Outputs: No outputs
*/
void OUT_CHAR(uint8_t c){
	
	// Wait until prev receive done
	while((USARTD0.STATUS & PIN5_bm) == 0);
 5d8:	90 91 a1 09 	lds	r25, 0x09A1	; 0x8009a1 <__TEXT_REGION_LENGTH__+0x7009a1>
 5dc:	95 ff       	sbrs	r25, 5
 5de:	fc cf       	rjmp	.-8      	; 0x5d8 <OUT_CHAR>
	
	//Output char thru USART
	USARTD0.DATA = c;
 5e0:	80 93 a0 09 	sts	0x09A0, r24	; 0x8009a0 <__TEXT_REGION_LENGTH__+0x7009a0>
 5e4:	08 95       	ret

000005e6 <_exit>:
 5e6:	f8 94       	cli

000005e8 <__stop_program>:
 5e8:	ff cf       	rjmp	.-2      	; 0x5e8 <__stop_program>
